target datalayout = "e-m:e-p270:32:32-p271:32:32-p272:64:64-i64:64-i128:128-f80:128-n8:16:32:64-S128"
target triple = "x86_64-pc-linux-gnu"

%"class.std::__cxx11::basic_string" = type { %"struct.std::__cxx11::basic_string<char>::_Alloc_hider", i64, %union.anon }
%"struct.std::__cxx11::basic_string<char>::_Alloc_hider" = type { ptr }
%union.anon = type { i64, [8 x i8] }
%"class.pybind11::object" = type { %"class.pybind11::handle" }
%"class.pybind11::handle" = type { ptr }
%"class.pybind11::array" = type { %"class.pybind11::buffer" }
%"class.pybind11::buffer" = type { %"class.pybind11::object" }
%"class.std::vector.6" = type { %"struct.std::_Vector_base.7" }
%"struct.std::_Vector_base.7" = type { %"struct.std::_Vector_base<long, std::allocator<long>>::_Vector_impl" }
%"struct.std::_Vector_base<long, std::allocator<long>>::_Vector_impl" = type { %"struct.std::_Vector_base<long, std::allocator<long>>::_Vector_impl_data" }
%"struct.std::_Vector_base<long, std::allocator<long>>::_Vector_impl_data" = type { ptr, ptr, ptr }
%"struct.pybind11::buffer_info" = type <{ ptr, i64, i64, %"class.std::__cxx11::basic_string", i64, %"class.std::vector.6", %"class.std::vector.6", i8, [7 x i8], ptr, i8, [7 x i8] }>
%"struct.pybind11::detail::void_type" = type { i8 }
%"class.pybind11::detail::argument_loader.636" = type { %"class.std::tuple.637" }
%"class.std::tuple.637" = type { %"struct.std::_Tuple_impl.638" }
%"struct.std::_Tuple_impl.638" = type { %"struct.std::_Head_base.639" }
%"struct.std::_Head_base.639" = type { %"struct.pybind11::detail::type_caster.640" }
%"struct.pybind11::detail::type_caster.640" = type { i64 }
%struct.PartialStruct = type { i8, i32, float, i64, x86_fp80 }
%"class.pybind11::array_t.660" = type { %"class.pybind11::array" }
%struct.PartialNestedStruct = type { i64, %struct.PartialStruct, i64 }

@_ZTIN8pybind1117error_already_setE = linkonce_odr hidden constant { ptr, ptr, ptr } { ptr getelementptr inbounds (ptr, ptr @_ZTVN10__cxxabiv120__si_class_type_infoE, i64 2), ptr @_ZTSN8pybind1117error_already_setE, ptr @_ZTISt9exception }, comdat, align 8

; Function Attrs: mustprogress nounwind uwtable
define linkonce_odr hidden void @_ZN8pybind116objectC2ENS_6handleENS0_8stolen_tE(ptr noundef nonnull align 8 dereferenceable(8) %0, ptr %1) unnamed_addr #0 comdat align 2 {
  %3 = alloca %"class.pybind11::handle", align 8
  %4 = alloca ptr, align 8
  %5 = getelementptr inbounds %"class.pybind11::handle", ptr %3, i32 0, i32 0
  store ptr %1, ptr %5, align 8
  store ptr %0, ptr %4, align 8
  %6 = load ptr, ptr %4, align 8
  call void @llvm.memcpy.p0.p0.i64(ptr align 8 %6, ptr align 8 %3, i64 8, i1 false)
  ret void
}

; Function Attrs: mustprogress nounwind uwtable
define linkonce_odr hidden void @_ZN8pybind116bufferC2ENS_6handleENS_6object8stolen_tE(ptr noundef nonnull align 8 dereferenceable(8) %0, ptr %1) unnamed_addr #0 comdat align 2 {
  %3 = alloca %"class.pybind11::handle", align 8
  %4 = alloca ptr, align 8
  %5 = alloca %"class.pybind11::handle", align 8
  %6 = getelementptr inbounds %"class.pybind11::handle", ptr %3, i32 0, i32 0
  store ptr %1, ptr %6, align 8
  store ptr %0, ptr %4, align 8
  %7 = load ptr, ptr %4, align 8
  call void @llvm.memcpy.p0.p0.i64(ptr align 8 %5, ptr align 8 %3, i64 8, i1 false)
  %8 = getelementptr inbounds %"class.pybind11::handle", ptr %5, i32 0, i32 0
  %9 = load ptr, ptr %8, align 8
  call void @_ZN8pybind116objectC2ENS_6handleENS0_8stolen_tE(ptr noundef nonnull align 8 dereferenceable(8) %7, ptr %9)
  ret void
}

; Function Attrs: mustprogress nounwind uwtable
define linkonce_odr hidden noundef nonnull align 8 dereferenceable(8) ptr @_ZNSt10_Head_baseILm0EN8pybind116detail11type_casterImvEELb0EE7_M_headERS4_(ptr noundef nonnull align 8 dereferenceable(8) %0) #0 comdat align 2 {
  %2 = alloca ptr, align 8
  store ptr %0, ptr %2, align 8
  %3 = load ptr, ptr %2, align 8
  %4 = getelementptr inbounds %"struct.std::_Head_base.639", ptr %3, i32 0, i32 0
  ret ptr %4
}

; Function Attrs: mustprogress uwtable
define linkonce_odr hidden void @_ZN8pybind115arrayC2ENS_6handleENS_6object8stolen_tE(ptr noundef nonnull align 8 dereferenceable(8) %0, ptr %1) unnamed_addr #1 comdat align 2 {
  %3 = alloca %"class.pybind11::handle", align 8
  %4 = alloca ptr, align 8
  %5 = alloca %"class.pybind11::handle", align 8
  %6 = getelementptr inbounds %"class.pybind11::handle", ptr %3, i32 0, i32 0
  store ptr %1, ptr %6, align 8
  store ptr %0, ptr %4, align 8
  %7 = load ptr, ptr %4, align 8
  call void @llvm.memcpy.p0.p0.i64(ptr align 8 %5, ptr align 8 %3, i64 8, i1 false)
  %8 = getelementptr inbounds %"class.pybind11::handle", ptr %5, i32 0, i32 0
  %9 = load ptr, ptr %8, align 8
  call void @_ZN8pybind116bufferC2ENS_6handleENS_6object8stolen_tE(ptr noundef nonnull align 8 dereferenceable(8) %7, ptr %9)
  ret void
}

; Function Attrs: mustprogress nounwind uwtable
define linkonce_odr hidden void @_ZN8pybind116handleC2IP7_objectTnNSt9enable_ifIXsr6detail25is_pyobj_ptr_or_nullptr_tIT_EE5valueEiE4typeELi0EEES5_(ptr noundef nonnull align 8 dereferenceable(8) %0, ptr noundef %1) unnamed_addr #0 comdat align 2 {
  %3 = alloca ptr, align 8
  %4 = alloca ptr, align 8
  store ptr %0, ptr %3, align 8
  store ptr %1, ptr %4, align 8
  %5 = load ptr, ptr %3, align 8
  %6 = getelementptr inbounds %"class.pybind11::handle", ptr %5, i32 0, i32 0
  %7 = load ptr, ptr %4, align 8
  store ptr %7, ptr %6, align 8
  ret void
}

; Function Attrs: mustprogress nounwind uwtable
define linkonce_odr hidden noundef ptr @_ZNK8pybind116handle3ptrEv(ptr noundef nonnull align 8 dereferenceable(8) %0) #0 comdat align 2 {
  %2 = alloca ptr, align 8
  store ptr %0, ptr %2, align 8
  %3 = load ptr, ptr %2, align 8
  %4 = getelementptr inbounds %"class.pybind11::handle", ptr %3, i32 0, i32 0
  %5 = load ptr, ptr %4, align 8
  ret ptr %5
}

; Function Attrs: mustprogress nounwind uwtable
define linkonce_odr hidden noundef nonnull align 8 dereferenceable(8) ptr @_ZNSt11_Tuple_implILm0EJN8pybind116detail11type_casterImvEEEE7_M_headERS4_(ptr noundef nonnull align 8 dereferenceable(8) %0) #0 comdat align 2 {
  %2 = alloca ptr, align 8
  store ptr %0, ptr %2, align 8
  %3 = load ptr, ptr %2, align 8
  %4 = call noundef nonnull align 8 dereferenceable(8) ptr @_ZNSt10_Head_baseILm0EN8pybind116detail11type_casterImvEELb0EE7_M_headERS4_(ptr noundef nonnull align 8 dereferenceable(8) %3) #16
  ret ptr %4
}

; Function Attrs: mustprogress uwtable
define linkonce_odr hidden void @_ZN8pybind117array_tI19PartialNestedStructLi0EEC2ERKNS_6objectE(ptr noundef nonnull align 8 dereferenceable(8) %0, ptr noundef nonnull align 8 dereferenceable(8) %1) unnamed_addr #1 comdat align 2 personality ptr @__gxx_personality_v0 {
  %3 = alloca ptr, align 8
  %4 = alloca ptr, align 8
  %5 = alloca %"class.pybind11::handle", align 8
  %6 = alloca ptr, align 8
  %7 = alloca i32, align 4
  store ptr %0, ptr %3, align 8
  store ptr %1, ptr %4, align 8
  %8 = load ptr, ptr %3, align 8
  %9 = load ptr, ptr %4, align 8
  %10 = call noundef ptr @_ZNK8pybind116handle3ptrEv(ptr noundef nonnull align 8 dereferenceable(8) %9)
  %11 = call noundef ptr @_ZN8pybind117array_tI19PartialNestedStructLi0EE11raw_array_tEP7_object(ptr noundef %10)
  call void @_ZN8pybind116handleC2IP7_objectTnNSt9enable_ifIXsr6detail25is_pyobj_ptr_or_nullptr_tIT_EE5valueEiE4typeELi0EEES5_(ptr noundef nonnull align 8 dereferenceable(8) %5, ptr noundef %11)
  %12 = getelementptr inbounds %"class.pybind11::handle", ptr %5, i32 0, i32 0
  %13 = load ptr, ptr %12, align 8
  call void @_ZN8pybind115arrayC2ENS_6handleENS_6object8stolen_tE(ptr noundef nonnull align 8 dereferenceable(8) %8, ptr %13)
  %14 = getelementptr inbounds %"class.pybind11::handle", ptr %8, i32 0, i32 0
  %15 = load ptr, ptr %14, align 8
  %16 = icmp ne ptr %15, null
  br i1 %16, label %28, label %17

17:                                               ; preds = %2
  %18 = call ptr @__cxa_allocate_exception(i64 24) #16
  invoke void @_ZN8pybind1117error_already_setC2Ev(ptr noundef nonnull align 8 dereferenceable(24) %18)
          to label %19 unwind label %20

19:                                               ; preds = %17
  invoke void @__cxa_throw(ptr %18, ptr @_ZTIN8pybind1117error_already_setE, ptr @_ZN8pybind1117error_already_setD2Ev) #22
          to label %35 unwind label %24

20:                                               ; preds = %17
  %21 = landingpad { ptr, i32 }
          cleanup
  %22 = extractvalue { ptr, i32 } %21, 0
  store ptr %22, ptr %6, align 8
  %23 = extractvalue { ptr, i32 } %21, 1
  store i32 %23, ptr %7, align 4
  call void @__cxa_free_exception(ptr %18) #16
  br label %29

24:                                               ; preds = %19
  %25 = landingpad { ptr, i32 }
          cleanup
  %26 = extractvalue { ptr, i32 } %25, 0
  store ptr %26, ptr %6, align 8
  %27 = extractvalue { ptr, i32 } %25, 1
  store i32 %27, ptr %7, align 4
  br label %29

28:                                               ; preds = %2
  ret void

29:                                               ; preds = %24, %20
  call void @_ZN8pybind115arrayD2Ev(ptr noundef nonnull align 8 dereferenceable(8) %8) #16
  br label %30

30:                                               ; preds = %29
  %31 = load ptr, ptr %6, align 8
  %32 = load i32, ptr %7, align 4
  %33 = insertvalue { ptr, i32 } poison, ptr %31, 0
  %34 = insertvalue { ptr, i32 } %33, i32 %32, 1
  resume { ptr, i32 } %34

35:                                               ; preds = %19
  unreachable
}

; Function Attrs: mustprogress nounwind uwtable
define linkonce_odr hidden noundef nonnull align 8 dereferenceable(8) ptr @_ZNO8pybind116detail11type_casterImvEcvOmEv(ptr noundef nonnull align 8 dereferenceable(8) %0) #0 comdat align 2 {
  %2 = alloca ptr, align 8
  store ptr %0, ptr %2, align 8
  %3 = load ptr, ptr %2, align 8
  %4 = getelementptr inbounds %"struct.pybind11::detail::type_caster.640", ptr %3, i32 0, i32 0
  ret ptr %4
}

; Function Attrs: mustprogress nounwind uwtable
define linkonce_odr hidden noundef nonnull align 8 dereferenceable(8) ptr @_ZSt12__get_helperILm0EN8pybind116detail11type_casterImvEEJEERT0_RSt11_Tuple_implIXT_EJS4_DpT1_EE(ptr noundef nonnull align 8 dereferenceable(8) %0) #0 comdat {
  %2 = alloca ptr, align 8
  store ptr %0, ptr %2, align 8
  %3 = load ptr, ptr %2, align 8
  %4 = call noundef nonnull align 8 dereferenceable(8) ptr @_ZNSt11_Tuple_implILm0EJN8pybind116detail11type_casterImvEEEE7_M_headERS4_(ptr noundef nonnull align 8 dereferenceable(8) %3) #16
  ret ptr %4
}

; Function Attrs: mustprogress uwtable
define internal void @"_ZZ27test_submodule_numpy_dtypesRN8pybind117module_EENK3$_6clEm"(ptr dead_on_unwind noalias writable sret(%"class.pybind11::array_t.660") align 8 %0, ptr noundef nonnull align 1 dereferenceable(1) %1, i64 noundef %2) #1 align 2 personality ptr @__gxx_personality_v0 {
  %4 = alloca ptr, align 8
  %5 = alloca ptr, align 8
  %6 = alloca i64, align 8
  %7 = alloca i1, align 1
  %8 = alloca %"class.pybind11::array", align 8
  %9 = alloca ptr, align 8
  %10 = alloca i32, align 4
  %11 = alloca %"struct.pybind11::buffer_info", align 8
  %12 = alloca ptr, align 8
  %13 = alloca i64, align 8
  store ptr %0, ptr %4, align 8
  store ptr %1, ptr %5, align 8
  store i64 %2, ptr %6, align 8
  store i1 false, ptr %7, align 1
  %14 = load i64, ptr %6, align 8
  call void @_Z18mkarray_via_bufferI19PartialNestedStructEN8pybind115arrayEm(ptr dead_on_unwind writable sret(%"class.pybind11::array") align 8 %8, i64 noundef %14)
  invoke void @_ZN8pybind117array_tI19PartialNestedStructLi0EEC2ERKNS_6objectE(ptr noundef nonnull align 8 dereferenceable(8) %0, ptr noundef nonnull align 8 dereferenceable(8) %8)
          to label %15 unwind label %62

15:                                               ; preds = %3
  call void @_ZN8pybind115arrayD2Ev(ptr noundef nonnull align 8 dereferenceable(8) %8) #16
  invoke void @_ZNK8pybind116buffer7requestEb(ptr dead_on_unwind writable sret(%"struct.pybind11::buffer_info") align 8 %11, ptr noundef nonnull align 8 dereferenceable(8) %0, i1 noundef zeroext false)
          to label %16 unwind label %66

16:                                               ; preds = %15
  %17 = getelementptr inbounds %"struct.pybind11::buffer_info", ptr %11, i32 0, i32 0
  %18 = load ptr, ptr %17, align 8
  store ptr %18, ptr %12, align 8
  store i64 0, ptr %13, align 8
  br label %19

19:                                               ; preds = %59, %16
  %20 = load i64, ptr %13, align 8
  %21 = load i64, ptr %6, align 8
  %22 = icmp ult i64 %20, %21
  br i1 %22, label %23, label %70

23:                                               ; preds = %19
  br label %24

24:                                               ; preds = %23
  %25 = load i64, ptr %13, align 8
  %26 = urem i64 %25, 2
  %27 = icmp ne i64 %26, 0
  %28 = load ptr, ptr %12, align 8
  %29 = load i64, ptr %13, align 8
  %30 = getelementptr inbounds %struct.PartialNestedStruct, ptr %28, i64 %29
  %31 = getelementptr inbounds %struct.PartialNestedStruct, ptr %30, i32 0, i32 1
  %32 = getelementptr inbounds %struct.PartialStruct, ptr %31, i32 0, i32 0
  %33 = zext i1 %27 to i8
  store i8 %33, ptr %32, align 16
  %34 = load i64, ptr %13, align 8
  %35 = trunc i64 %34 to i32
  %36 = load ptr, ptr %12, align 8
  %37 = load i64, ptr %13, align 8
  %38 = getelementptr inbounds %struct.PartialNestedStruct, ptr %36, i64 %37
  %39 = getelementptr inbounds %struct.PartialNestedStruct, ptr %38, i32 0, i32 1
  %40 = getelementptr inbounds %struct.PartialStruct, ptr %39, i32 0, i32 1
  store i32 %35, ptr %40, align 4
  %41 = load i64, ptr %13, align 8
  %42 = uitofp i64 %41 to float
  %43 = fmul float %42, 1.500000e+00
  %44 = load ptr, ptr %12, align 8
  %45 = load i64, ptr %13, align 8
  %46 = getelementptr inbounds %struct.PartialNestedStruct, ptr %44, i64 %45
  %47 = getelementptr inbounds %struct.PartialNestedStruct, ptr %46, i32 0, i32 1
  %48 = getelementptr inbounds %struct.PartialStruct, ptr %47, i32 0, i32 2
  store float %43, ptr %48, align 8
  %49 = load i64, ptr %13, align 8
  %50 = uitofp i64 %49 to x86_fp80
  %51 = fmul x86_fp80 %50, 0xKC000A000000000000000
  %52 = load ptr, ptr %12, align 8
  %53 = load i64, ptr %13, align 8
  %54 = getelementptr inbounds %struct.PartialNestedStruct, ptr %52, i64 %53
  %55 = getelementptr inbounds %struct.PartialNestedStruct, ptr %54, i32 0, i32 1
  %56 = getelementptr inbounds %struct.PartialStruct, ptr %55, i32 0, i32 4
  store x86_fp80 %51, ptr %56, align 16
  br label %57

57:                                               ; preds = %24
  br label %58

58:                                               ; preds = %57
  br label %59

59:                                               ; preds = %58
  %60 = load i64, ptr %13, align 8
  %61 = add i64 %60, 1
  store i64 %61, ptr %13, align 8
  br label %19, !llvm.loop !136

62:                                               ; preds = %3
  %63 = landingpad { ptr, i32 }
          cleanup
  %64 = extractvalue { ptr, i32 } %63, 0
  store ptr %64, ptr %9, align 8
  %65 = extractvalue { ptr, i32 } %63, 1
  store i32 %65, ptr %10, align 4
  call void @_ZN8pybind115arrayD2Ev(ptr noundef nonnull align 8 dereferenceable(8) %8) #16
  br label %74

66:                                               ; preds = %15
  %67 = landingpad { ptr, i32 }
          cleanup
  %68 = extractvalue { ptr, i32 } %67, 0
  store ptr %68, ptr %9, align 8
  %69 = extractvalue { ptr, i32 } %67, 1
  store i32 %69, ptr %10, align 4
  call void @_ZN8pybind117array_tI19PartialNestedStructLi0EED2Ev(ptr noundef nonnull align 8 dereferenceable(8) %0) #16
  br label %74

70:                                               ; preds = %19
  store i1 true, ptr %7, align 1
  call void @_ZN8pybind1111buffer_infoD2Ev(ptr noundef nonnull align 8 dereferenceable(129) %11) #16
  %71 = load i1, ptr %7, align 1
  br i1 %71, label %73, label %72

72:                                               ; preds = %70
  call void @_ZN8pybind117array_tI19PartialNestedStructLi0EED2Ev(ptr noundef nonnull align 8 dereferenceable(8) %0) #16
  br label %73

73:                                               ; preds = %72, %70
  ret void

74:                                               ; preds = %66, %62
  %75 = load ptr, ptr %9, align 8
  %76 = load i32, ptr %10, align 4
  %77 = insertvalue { ptr, i32 } poison, ptr %75, 0
  %78 = insertvalue { ptr, i32 } %77, i32 %76, 1
  resume { ptr, i32 } %78
}

; Function Attrs: mustprogress uwtable
define linkonce_odr hidden noundef nonnull align 8 dereferenceable(8) ptr @_ZN8pybind116detail7cast_opImEENS0_11type_casterINS0_14intrinsic_typeIT_E4typeEvE12cast_op_typeINSt20add_rvalue_referenceIS4_E4typeEEEOS7_(ptr noundef nonnull align 8 dereferenceable(8) %0) #1 comdat {
  %2 = alloca ptr, align 8
  store ptr %0, ptr %2, align 8
  %3 = load ptr, ptr %2, align 8
  %4 = call noundef nonnull align 8 dereferenceable(8) ptr @_ZNO8pybind116detail11type_casterImvEcvOmEv(ptr noundef nonnull align 8 dereferenceable(8) %3)
  ret ptr %4
}

; Function Attrs: mustprogress nounwind uwtable
define linkonce_odr hidden noundef nonnull align 8 dereferenceable(8) ptr @_ZSt3getILm0EJN8pybind116detail11type_casterImvEEEERNSt13tuple_elementIXT_ESt5tupleIJDpT0_EEE4typeERS8_(ptr noundef nonnull align 8 dereferenceable(8) %0) #0 comdat {
  %2 = alloca ptr, align 8
  store ptr %0, ptr %2, align 8
  %3 = load ptr, ptr %2, align 8
  %4 = call noundef nonnull align 8 dereferenceable(8) ptr @_ZSt12__get_helperILm0EN8pybind116detail11type_casterImvEEJEERT0_RSt11_Tuple_implIXT_EJS4_DpT1_EE(ptr noundef nonnull align 8 dereferenceable(8) %3) #16
  ret ptr %4
}

; Function Attrs: mustprogress uwtable
define internal void @"_ZNO8pybind116detail15argument_loaderIJmEE9call_implINS_7array_tI19PartialNestedStructLi0EEERZ27test_submodule_numpy_dtypesRNS_7module_EE3$_6JLm0EENS0_9void_typeEEET_OT0_St16integer_sequenceImJXspT1_EEEOT2_"(ptr dead_on_unwind noalias writable sret(%"class.pybind11::array_t.660") align 8 %0, ptr noundef nonnull align 8 dereferenceable(8) %1, ptr noundef nonnull align 1 dereferenceable(1) %2, ptr noundef nonnull align 1 dereferenceable(1) %3) #1 align 2 {
  %5 = alloca ptr, align 8
  %6 = alloca ptr, align 8
  %7 = alloca ptr, align 8
  %8 = alloca ptr, align 8
  store ptr %0, ptr %5, align 8
  store ptr %1, ptr %6, align 8
  store ptr %2, ptr %7, align 8
  store ptr %3, ptr %8, align 8
  %9 = load ptr, ptr %6, align 8
  %10 = load ptr, ptr %7, align 8
  %11 = getelementptr inbounds %"class.pybind11::detail::argument_loader.636", ptr %9, i32 0, i32 0
  %12 = call noundef nonnull align 8 dereferenceable(8) ptr @_ZSt3getILm0EJN8pybind116detail11type_casterImvEEEERNSt13tuple_elementIXT_ESt5tupleIJDpT0_EEE4typeERS8_(ptr noundef nonnull align 8 dereferenceable(8) %11) #16
  %13 = call noundef nonnull align 8 dereferenceable(8) ptr @_ZN8pybind116detail7cast_opImEENS0_11type_casterINS0_14intrinsic_typeIT_E4typeEvE12cast_op_typeINSt20add_rvalue_referenceIS4_E4typeEEEOS7_(ptr noundef nonnull align 8 dereferenceable(8) %12)
  %14 = load i64, ptr %13, align 8
  call void @"_ZZ27test_submodule_numpy_dtypesRN8pybind117module_EENK3$_6clEm"(ptr dead_on_unwind writable sret(%"class.pybind11::array_t.660") align 8 %0, ptr noundef nonnull align 1 dereferenceable(1) %10, i64 noundef %14)
  ret void
}

; Function Attrs: mustprogress uwtable
define internal void @"_ZNO8pybind116detail15argument_loaderIJmEE4callINS_7array_tI19PartialNestedStructLi0EEENS0_9void_typeERZ27test_submodule_numpy_dtypesRNS_7module_EE3$_6EENSt9enable_ifIXntsr3std7is_voidIT_EE5valueESD_E4typeEOT1_"(ptr dead_on_unwind noalias writable sret(%"class.pybind11::array_t.660") align 8 %0, ptr noundef nonnull align 8 dereferenceable(8) %1, ptr noundef nonnull align 1 dereferenceable(1) %2) #1 align 2 {
  %4 = alloca ptr, align 8
  %5 = alloca ptr, align 8
  %6 = alloca ptr, align 8
  %7 = alloca %"struct.pybind11::detail::void_type", align 1
  store ptr %0, ptr %4, align 8
  store ptr %1, ptr %5, align 8
  store ptr %2, ptr %6, align 8
  %8 = load ptr, ptr %5, align 8
  %9 = load ptr, ptr %6, align 8
  call void @"_ZNO8pybind116detail15argument_loaderIJmEE9call_implINS_7array_tI19PartialNestedStructLi0EEERZ27test_submodule_numpy_dtypesRNS_7module_EE3$_6JLm0EENS0_9void_typeEEET_OT0_St16integer_sequenceImJXspT1_EEEOT2_"(ptr dead_on_unwind writable sret(%"class.pybind11::array_t.660") align 8 %0, ptr noundef nonnull align 8 dereferenceable(8) %8, ptr noundef nonnull align 1 dereferenceable(1) %9, ptr noundef nonnull align 1 dereferenceable(1) %7)
  ret void
}