; Function Attrs: mustprogress uwtable
define internal fastcc void @"_ZNO8pybind116detail15argument_loaderIJmEE4callINS_7array_tI19PartialNestedStructLi0EEENS0_9void_typeERZ27test_submodule_numpy_dtypesRNS_7module_EE3$_6EENSt9enable_ifIXntsr3std7is_voidIT_EE5valueESD_E4typeEOT1_"(ptr dead_on_unwind noalias writable align 8 %0, i64 %.0.val) unnamed_addr #1 align 2 personality ptr @__gxx_personality_v0 {
  %2 = alloca %"class.pybind11::array", align 8
  %3 = alloca %"struct.pybind11::buffer_info", align 8
  tail call void @llvm.experimental.noalias.scope.decl(metadata !1738)
  tail call void @llvm.experimental.noalias.scope.decl(metadata !1741)
  call void @llvm.lifetime.start.p0(i64 8, ptr nonnull %2), !noalias !1738
  call void @llvm.lifetime.start.p0(i64 136, ptr nonnull %3), !noalias !1738
  call void @_Z18mkarray_via_bufferI19PartialNestedStructEN8pybind115arrayEm(ptr dead_on_unwind nonnull writable sret(%"class.pybind11::array") align 8 %2, i64 noundef %.0.val), !noalias !1744
  %4 = load ptr, ptr %2, align 8, !noalias !1744
  %5 = invoke noundef ptr @_ZN8pybind117array_tI19PartialNestedStructLi0EE11raw_array_tEP7_object(ptr noundef %4)
          to label %.noexc.i.i unwind label %37, !noalias !1744

.noexc.i.i:                                       ; preds = %1
  store ptr %5, ptr %0, align 8, !alias.scope !1744
  %.not.i.i.i = icmp eq ptr %5, null
  br i1 %.not.i.i.i, label %6, label %_ZN8pybind117array_tI19PartialNestedStructLi0EEC2ERKNS_6objectE.exit.i.i

6:                                                ; preds = %.noexc.i.i
  %7 = call ptr @__cxa_allocate_exception(i64 24) #24, !noalias !1744
  invoke void @_ZN8pybind1117error_already_setC2Ev(ptr noundef nonnull align 8 dereferenceable(24) %7)
          to label %8 unwind label %9, !noalias !1744

8:                                                ; preds = %6
  invoke void @__cxa_throw(ptr nonnull %7, ptr nonnull @_ZTIN8pybind1117error_already_setE, ptr nonnull @_ZN8pybind1117error_already_setD2Ev) #29
          to label %14 unwind label %11, !noalias !1744

9:                                                ; preds = %6
  %10 = landingpad { ptr, i32 }
          cleanup
  call void @__cxa_free_exception(ptr %7) #24, !noalias !1744
  br label %13

11:                                               ; preds = %8
  %12 = landingpad { ptr, i32 }
          cleanup
  br label %13

13:                                               ; preds = %11, %9
  %.pn.i.i.i = phi { ptr, i32 } [ %12, %11 ], [ %10, %9 ]
  call void @_ZN8pybind115arrayD2Ev(ptr noundef nonnull align 8 dereferenceable(8) %0) #24
  br label %.body.i.i

14:                                               ; preds = %8
  unreachable

_ZN8pybind117array_tI19PartialNestedStructLi0EEC2ERKNS_6objectE.exit.i.i: ; preds = %.noexc.i.i
  %15 = load ptr, ptr %2, align 8, !noalias !1744
  %.not.i.i.i.i.i.i.i = icmp eq ptr %15, null
  br i1 %.not.i.i.i.i.i.i.i, label %_ZN8pybind115arrayD2Ev.exit.i.i, label %16

16:                                               ; preds = %_ZN8pybind117array_tI19PartialNestedStructLi0EEC2ERKNS_6objectE.exit.i.i
  %17 = load i64, ptr %15, align 8, !noalias !1744
  %18 = add nsw i64 %17, -1
  store i64 %18, ptr %15, align 8, !noalias !1744
  %.not.i.i.i.i.i.i.i.i = icmp eq i64 %18, 0
  br i1 %.not.i.i.i.i.i.i.i.i, label %19, label %_ZN8pybind115arrayD2Ev.exit.i.i

19:                                               ; preds = %16
  invoke void @_Py_Dealloc(ptr noundef nonnull %15)
          to label %_ZN8pybind115arrayD2Ev.exit.i.i unwind label %20, !noalias !1744

20:                                               ; preds = %19
  %21 = landingpad { ptr, i32 }
          catch ptr null
  %22 = extractvalue { ptr, i32 } %21, 0
  call void @__clang_call_terminate(ptr %22) #25
  unreachable

_ZN8pybind115arrayD2Ev.exit.i.i:                  ; preds = %19, %16, %_ZN8pybind117array_tI19PartialNestedStructLi0EEC2ERKNS_6objectE.exit.i.i
  invoke void @_ZNK8pybind116buffer7requestEb(ptr dead_on_unwind nonnull writable sret(%"struct.pybind11::buffer_info") align 8 %3, ptr noundef nonnull align 8 dereferenceable(8) %0, i1 noundef zeroext false)
          to label %23 unwind label %39

23:                                               ; preds = %_ZN8pybind115arrayD2Ev.exit.i.i
  %24 = load ptr, ptr %3, align 8, !noalias !1744
  %.not.i.i = icmp eq i64 %.0.val, 0
  br i1 %.not.i.i, label %"_ZNO8pybind116detail15argument_loaderIJmEE9call_implINS_7array_tI19PartialNestedStructLi0EEERZ27test_submodule_numpy_dtypesRNS_7module_EE3$_6JLm0EENS0_9void_typeEEET_OT0_St16integer_sequenceImJXspT1_EEEOT2_.exit", label %.lr.ph.i.i

.lr.ph.i.i:                                       ; preds = %23, %.lr.ph.i.i
  %.01.i.i = phi i64 [ %36, %.lr.ph.i.i ], [ 0, %23 ]
  %25 = getelementptr inbounds %struct.PartialNestedStruct, ptr %24, i64 %.01.i.i, i32 1
  %26 = trunc i64 %.01.i.i to i8
  %27 = and i8 %26, 1
  store i8 %27, ptr %25, align 16
  %28 = trunc i64 %.01.i.i to i32
  %29 = getelementptr inbounds i8, ptr %25, i64 4
  store i32 %28, ptr %29, align 4
  %30 = uitofp i64 %.01.i.i to float
  %31 = fmul float %30, 1.500000e+00
  %32 = getelementptr inbounds i8, ptr %25, i64 8
  store float %31, ptr %32, align 8
  %33 = uitofp i64 %.01.i.i to x86_fp80
  %34 = fmul x86_fp80 %33, 0xKC000A000000000000000
  %35 = getelementptr inbounds i8, ptr %25, i64 32
  store x86_fp80 %34, ptr %35, align 16
  %36 = add nuw i64 %.01.i.i, 1
  %exitcond.not.i.i = icmp eq i64 %36, %.0.val
  br i1 %exitcond.not.i.i, label %"_ZNO8pybind116detail15argument_loaderIJmEE9call_implINS_7array_tI19PartialNestedStructLi0EEERZ27test_submodule_numpy_dtypesRNS_7module_EE3$_6JLm0EENS0_9void_typeEEET_OT0_St16integer_sequenceImJXspT1_EEEOT2_.exit", label %.lr.ph.i.i, !llvm.loop !1745

37:                                               ; preds = %1
  %38 = landingpad { ptr, i32 }
          cleanup
  br label %.body.i.i

.body.i.i:                                        ; preds = %37, %13
  %eh.lpad-body.i.i = phi { ptr, i32 } [ %38, %37 ], [ %.pn.i.i.i, %13 ]
  call void @_ZN8pybind115arrayD2Ev(ptr noundef nonnull align 8 dereferenceable(8) %2) #24
  br label %41

39:                                               ; preds = %_ZN8pybind115arrayD2Ev.exit.i.i
  %40 = landingpad { ptr, i32 }
          cleanup
  call void @_ZN8pybind117array_tI19PartialNestedStructLi0EED2Ev(ptr noundef nonnull align 8 dereferenceable(8) %0) #24
  br label %41

41:                                               ; preds = %39, %.body.i.i
  %.pn.i.i = phi { ptr, i32 } [ %40, %39 ], [ %eh.lpad-body.i.i, %.body.i.i ]
  resume { ptr, i32 } %.pn.i.i

"_ZNO8pybind116detail15argument_loaderIJmEE9call_implINS_7array_tI19PartialNestedStructLi0EEERZ27test_submodule_numpy_dtypesRNS_7module_EE3$_6JLm0EENS0_9void_typeEEET_OT0_St16integer_sequenceImJXspT1_EEEOT2_.exit": ; preds = %.lr.ph.i.i, %23
  call void @_ZN8pybind1111buffer_infoD2Ev(ptr noundef nonnull align 8 dereferenceable(129) %3) #24
  call void @llvm.lifetime.end.p0(i64 8, ptr nonnull %2), !noalias !1738
  call void @llvm.lifetime.end.p0(i64 136, ptr nonnull %3), !noalias !1738
  ret void
}